target datalayout = "e-m:e-p270:32:32-p271:32:32-p272:64:64-i64:64-i128:128-f80:128-n8:16:32:64-S128"
target triple = "x86_64-pc-linux-gnu"

%struct._capture_file = type { ptr, i32, ptr, ptr, i8, i8, i8, i64, i16, i32, i32, i32, ptr, i32, i64, i32, i32, i32, i32, i8, i32, %struct.nstime_t, i32, ptr, ptr, ptr, i8, i8, i32, ptr, i8, i8, i8, i8, i8, i32, i32, i8, ptr, i32, i32, i8, %struct.packet_provider_data, i32, i32, %struct.epan_column_info, ptr, ptr, ptr, %struct.wtap_rec, %struct.Buffer, ptr, i64, i32 }
%struct.nstime_t = type { i64, i32 }
%struct.packet_provider_data = type { ptr, ptr, ptr, ptr, ptr, ptr }
%struct.epan_column_info = type { ptr, i32, ptr, ptr, ptr, %struct.col_expr_t, i8, ptr }
%struct.col_expr_t = type { ptr, ptr }
%struct.wtap_rec = type { i32, i32, i32, %struct.nstime_t, i32, %struct.nstime_t, i8, %union.anon, ptr, i8, %struct.Buffer, %struct.Buffer }
%union.anon = type { %struct.wtap_packet_header }
%struct.wtap_packet_header = type { i32, i32, i32, i32, %union.wtap_pseudo_header }
%union.wtap_pseudo_header = type { %struct.erf_mc_phdr }
%struct.erf_mc_phdr = type { %struct.erf_phdr, [16 x %struct.erf_ehdr], %union.anon.1 }
%struct.erf_phdr = type { i64, i8, i8, i16, i16, i16 }
%struct.erf_ehdr = type { i64 }
%union.anon.1 = type { i32 }
%struct.Buffer = type { ptr, i64, i64, i64 }
%struct.epan_dissect = type { ptr, ptr, ptr, %struct._packet_info }
%struct._packet_info = type { ptr, ptr, i32, i32, %struct.nstime_t, %struct.nstime_t, %struct.nstime_t, i8, ptr, ptr, ptr, ptr, %struct._address, %struct._address, %struct._address, %struct._address, %struct._address, %struct._address, i32, ptr, i8, [3 x i8], %struct.anon.3, i32, i32, i32, i32, ptr, i8, ptr, ptr, i16, i16, i32, i32, i16, i32, i32, ptr, ptr, ptr, i8, i8, i16, i16, i16, i32, i16, i16, ptr, ptr, ptr, ptr, ptr, i32, i32 }
%struct._address = type { i32, i32, ptr, ptr }
%struct.anon.3 = type { i8, [3 x i8] }
%struct.packet_range_tag = type { i32, i8, i8, i8, ptr, i32, ptr, i32, ptr, i32, i32, i32, i32, i32, i32, i32, i32, i32, i32, i32, i32, i32, i32, i32, i32, i32, i32, i32, i32, i32, i32, i32, i32, i32, i32, i32, ptr, ptr, ptr, ptr, ptr, ptr, ptr, ptr, i8, i32 }
%struct.print_args_t = type { ptr, i32, i8, ptr, ptr, %struct.packet_range_tag, i8, i8, i32, i8, i32, i8 }
%struct.write_packet_callback_args_t = type { ptr, %struct.epan_dissect, ptr, %struct.json_dumper }
%struct.json_dumper = type { ptr, ptr, i32, i32, i32, i32, [1100 x i8] }

@.str.28 = private unnamed_addr constant [17 x i8] c"selected packets\00", align 1
@.str.29 = private unnamed_addr constant [2 x i8] c"w\00", align 1
@.str.33 = private unnamed_addr constant [17 x i8] c"Writing C Arrays\00", align 1

; Function Attrs: null_pointer_is_valid sspstrong uwtable
define hidden i32 @cf_write_carrays_packets(ptr noundef %0, ptr noundef %1) #1 {
  %3 = alloca i32, align 4
  %4 = alloca ptr, align 8
  %5 = alloca ptr, align 8
  %6 = alloca %struct.write_packet_callback_args_t, align 8
  %7 = alloca ptr, align 8
  %8 = alloca i32, align 4
  %9 = alloca i32, align 4
  store ptr %0, ptr %4, align 8
  store ptr %1, ptr %5, align 8
  call void @llvm.lifetime.start.p0(i64 1616, ptr %6) #19
  call void @llvm.lifetime.start.p0(i64 8, ptr %7) #19
  call void @llvm.lifetime.start.p0(i64 4, ptr %8) #19
  %10 = load ptr, ptr %5, align 8
  %11 = getelementptr inbounds nuw %struct.print_args_t, ptr %10, i32 0, i32 3
  %12 = load ptr, ptr %11, align 8
  %13 = call noalias ptr @fopen(ptr noundef %12, ptr noundef @.str.29)
  store ptr %13, ptr %7, align 8
  %14 = load ptr, ptr %7, align 8
  %15 = icmp eq ptr %14, null
  br i1 %15, label %16, label %17

16:                                               ; preds = %2
  store i32 1, ptr %3, align 4
  store i32 1, ptr %9, align 4
  br label %45

17:                                               ; preds = %2
  %18 = load ptr, ptr %7, align 8
  %19 = call i32 @ferror(ptr noundef %18) #19
  %20 = icmp ne i32 %19, 0
  br i1 %20, label %21, label %24

21:                                               ; preds = %17
  %22 = load ptr, ptr %7, align 8
  %23 = call i32 @fclose(ptr noundef %22)
  store i32 2, ptr %3, align 4
  store i32 1, ptr %9, align 4
  br label %45

24:                                               ; preds = %17
  %25 = load ptr, ptr %7, align 8
  %26 = getelementptr inbounds nuw %struct.write_packet_callback_args_t, ptr %6, i32 0, i32 0
  store ptr %25, ptr %26, align 8
  %27 = load ptr, ptr %5, align 8
  %28 = getelementptr inbounds nuw %struct.write_packet_callback_args_t, ptr %6, i32 0, i32 2
  store ptr %27, ptr %28, align 8
  %29 = getelementptr inbounds nuw %struct.write_packet_callback_args_t, ptr %6, i32 0, i32 1
  %30 = load ptr, ptr %4, align 8
  %31 = getelementptr inbounds nuw %struct._capture_file, ptr %30, i32 0, i32 0
  %32 = load ptr, ptr %31, align 8
  call void @epan_dissect_init(ptr noundef %29, ptr noundef %32, i1 noundef zeroext true, i1 noundef zeroext true)
  %33 = load ptr, ptr %4, align 8
  %34 = load ptr, ptr %5, align 8
  %35 = getelementptr inbounds nuw %struct.print_args_t, ptr %34, i32 0, i32 5
  %36 = call i32 @process_specified_records(ptr noundef %33, ptr noundef %35, ptr noundef @.str.33, ptr noundef @.str.28, i1 noundef zeroext true, ptr noundef @carrays_write_packet, ptr noundef %6, i1 noundef zeroext true)
  store i32 %36, ptr %8, align 4
  %37 = getelementptr inbounds nuw %struct.write_packet_callback_args_t, ptr %6, i32 0, i32 1
  call void @epan_dissect_cleanup(ptr noundef %37)
  %38 = load i32, ptr %8, align 4
  switch i32 %38, label %42 [
    i32 0, label %42
    i32 1, label %42
    i32 2, label %39
  ]

39:                                               ; preds = %24
  %40 = load ptr, ptr %7, align 8
  %41 = call i32 @fclose(ptr noundef %40)
  store i32 2, ptr %3, align 4
  store i32 1, ptr %9, align 4
  br label %45

42:                                               ; preds = %24, %24, %24
  %43 = load ptr, ptr %7, align 8
  %44 = call i32 @fclose(ptr noundef %43)
  store i32 0, ptr %3, align 4
  store i32 1, ptr %9, align 4
  br label %45

45:                                               ; preds = %42, %39, %21, %16
  call void @llvm.lifetime.end.p0(i64 4, ptr %8) #19
  call void @llvm.lifetime.end.p0(i64 8, ptr %7) #19
  call void @llvm.lifetime.end.p0(i64 1616, ptr %6) #19
  %46 = load i32, ptr %3, align 4
  ret i32 %46
}