; Function Attrs: null_pointer_is_valid sspstrong uwtable
define hidden range(i32 0, 3) i32 @cf_write_carrays_packets(ptr noundef %0, ptr noundef %1) local_unnamed_addr #1 {
  %3 = alloca %struct.write_packet_callback_args_t, align 8
  call void @llvm.lifetime.start.p0(i64 1616, ptr nonnull %3) #23
  %4 = getelementptr inbounds nuw i8, ptr %1, i64 16
  %5 = load ptr, ptr %4, align 8
  %6 = tail call noalias ptr @fopen(ptr noundef %5, ptr noundef nonnull @.str.29)
  %7 = icmp eq ptr %6, null
  br i1 %7, label %19, label %8

8:                                                ; preds = %2
  %9 = tail call i32 @ferror(ptr noundef nonnull %6) #23
  %.not = icmp eq i32 %9, 0
  br i1 %.not, label %12, label %10

10:                                               ; preds = %8
  %11 = tail call i32 @fclose(ptr noundef nonnull %6)
  br label %19

12:                                               ; preds = %8
  store ptr %6, ptr %3, align 8
  %13 = getelementptr inbounds nuw i8, ptr %3, i64 472
  store ptr %1, ptr %13, align 8
  %14 = getelementptr inbounds nuw i8, ptr %3, i64 8
  %15 = load ptr, ptr %0, align 8
  call void @epan_dissect_init(ptr noundef nonnull %14, ptr noundef %15, i1 noundef zeroext true, i1 noundef zeroext true)
  %16 = getelementptr inbounds nuw i8, ptr %1, i64 32
  %17 = call fastcc i32 @process_specified_records(ptr noundef %0, ptr noundef nonnull %16, ptr noundef nonnull @.str.33, ptr noundef nonnull @.str.28, ptr noundef nonnull @carrays_write_packet, ptr noundef nonnull %3, i1 noundef zeroext true)
  call void @epan_dissect_cleanup(ptr noundef nonnull %14)
  %cond = icmp eq i32 %17, 2
  %18 = call i32 @fclose(ptr noundef nonnull %6)
  %. = select i1 %cond, i32 2, i32 0
  br label %19

19:                                               ; preds = %12, %2, %10
  %.0 = phi i32 [ 2, %10 ], [ 1, %2 ], [ %., %12 ]
  call void @llvm.lifetime.end.p0(i64 1616, ptr nonnull %3) #23
  ret i32 %.0
}